((lp1
(dp2
VVolume
p3
I0
sVLast
p4
F3.4199999999999999
sS'Moneyness'
p5
F0.019999999999999574
sVBid
p6
F3.4199999999999999
sVOpen Int
p7
VN/A
p8
sVHigh
p9
F3.4199999999999999
sVAsk
p10
F3.4199999999999999
sVLow
p11
F3.4199999999999999
sVTime
p12
V04/09/20
p13
sVStrike
p14
F31.5
sVPremium
p15
F3420
sS'Type'
p16
S'C'
sVChange
p17
F-1.0700000000000001
sa(dp18
g3
I0
sg4
F3.2799999999999998
sg5
F0.26999999999999957
sg6
F3.2799999999999998
sg7
VN/A
p19
sg9
F3.2799999999999998
sg10
F3.2799999999999998
sg11
F3.2799999999999998
sg12
V04/09/20
p20
sg14
F31.75
sg15
F3280
sg16
S'C'
sg17
F-1.0600000000000001
sa(dp21
g3
I0
sg4
F3.1499999999999999
sg5
F0.51999999999999957
sg6
F3.1499999999999999
sg7
VN/A
p22
sg9
F3.1499999999999999
sg10
F3.1499999999999999
sg11
F3.1499999999999999
sg12
V04/09/20
p23
sg14
F32
sg15
F3150
sg16
S'C'
sg17
F-1.03
sa(dp24
g3
I0
sg4
F3.02
sg5
F0.76999999999999957
sg6
F3.02
sg7
VN/A
p25
sg9
F3.02
sg10
F3.02
sg11
F3.02
sg12
V04/09/20
p26
sg14
F32.25
sg15
F3020
sg16
S'C'
sg17
F-1.02
sa(dp27
g3
I0
sg4
F2.8900000000000001
sg5
F1.0199999999999996
sg6
F2.8900000000000001
sg7
VN/A
p28
sg9
F2.8900000000000001
sg10
F2.8900000000000001
sg11
F2.8900000000000001
sg12
V04/09/20
p29
sg14
F32.5
sg15
F2890
sg16
S'C'
sg17
F-1
sa(dp30
g3
I0
sg4
F2.7599999999999998
sg5
F1.2699999999999996
sg6
F2.7599999999999998
sg7
VN/A
p31
sg9
F2.7599999999999998
sg10
F2.7599999999999998
sg11
F2.7599999999999998
sg12
V04/09/20
p32
sg14
F32.75
sg15
F2760
sg16
S'C'
sg17
F-0.97999999999999998
sa(dp33
g3
I0
sg4
F2.6299999999999999
sg5
F1.5199999999999996
sg6
F2.6299999999999999
sg7
VN/A
p34
sg9
F2.6299999999999999
sg10
F2.6299999999999999
sg11
F2.6299999999999999
sg12
V04/09/20
p35
sg14
F33
sg15
F2630
sg16
S'C'
sg17
F-0.96999999999999997
sa(dp36
g3
I0
sg4
F2.5099999999999998
sg5
F1.7699999999999996
sg6
F2.5099999999999998
sg7
VN/A
p37
sg9
F2.5099999999999998
sg10
F2.5099999999999998
sg11
F2.5099999999999998
sg12
V04/09/20
p38
sg14
F33.25
sg15
F2510
sg16
S'C'
sg17
F-0.94999999999999996
sa(dp39
g3
I0
sg4
F2.3999999999999999
sg5
F2.0199999999999996
sg6
F2.3999999999999999
sg7
VN/A
p40
sg9
F2.3999999999999999
sg10
F2.3999999999999999
sg11
F2.3999999999999999
sg12
V04/09/20
p41
sg14
F33.5
sg15
F2400
sg16
S'C'
sg17
F-0.93000000000000005
sa(dp42
g3
I0
sg4
F2.2799999999999998
sg5
F2.2699999999999996
sg6
F2.2799999999999998
sg7
VN/A
p43
sg9
F2.2799999999999998
sg10
F2.2799999999999998
sg11
F2.2799999999999998
sg12
V04/09/20
p44
sg14
F33.75
sg15
F2280
sg16
S'C'
sg17
F-0.92000000000000004
sa(dp45
g3
I0
sg4
F2.1699999999999999
sg5
F2.5199999999999996
sg6
F2.1699999999999999
sg7
VN/A
p46
sg9
F2.1699999999999999
sg10
F2.1699999999999999
sg11
F2.1699999999999999
sg12
V04/09/20
p47
sg14
F34
sg15
F2170
sg16
S'C'
sg17
F-0.90000000000000002
sa(dp48
g3
I0
sg4
F2.0600000000000001
sg5
F2.7699999999999996
sg6
F2.0600000000000001
sg7
VN/A
p49
sg9
F2.0600000000000001
sg10
F2.0600000000000001
sg11
F2.0600000000000001
sg12
V04/09/20
p50
sg14
F34.25
sg15
F2060
sg16
S'C'
sg17
F-0.88
sa(dp51
g3
I0
sg4
F1.96
sg5
F3.0199999999999996
sg6
F1.96
sg7
VN/A
p52
sg9
F1.96
sg10
F1.96
sg11
F1.96
sg12
V04/09/20
p53
sg14
F34.5
sg15
F1960
sg16
S'C'
sg17
F-0.85999999999999999
sa(dp54
g3
I0
sg4
F1.8600000000000001
sg5
F3.2699999999999996
sg6
F1.8600000000000001
sg7
VN/A
p55
sg9
F1.8600000000000001
sg10
F1.8600000000000001
sg11
F1.8600000000000001
sg12
V04/09/20
p56
sg14
F34.75
sg15
F1860
sg16
S'C'
sg17
F-0.83999999999999997
sa(dp57
g3
I0
sg4
F1.76
sg5
F3.5199999999999996
sg6
F1.76
sg7
VN/A
p58
sg9
F1.76
sg10
F1.76
sg11
F1.76
sg12
V04/09/20
p59
sg14
F35
sg15
F1760
sg16
S'C'
sg17
F-0.81999999999999995
sa(dp60
g3
I0
sg4
F1.6699999999999999
sg5
F3.7699999999999996
sg6
F1.6699999999999999
sg7
VN/A
p61
sg9
F1.6699999999999999
sg10
F1.6699999999999999
sg11
F1.6699999999999999
sg12
V04/09/20
p62
sg14
F35.25
sg15
F1670
sg16
S'C'
sg17
F-0.79000000000000004
sa(dp63
g3
I0
sg4
F1.5800000000000001
sg5
F4.0199999999999996
sg6
F1.5800000000000001
sg7
VN/A
p64
sg9
F1.5800000000000001
sg10
F1.5800000000000001
sg11
F1.5800000000000001
sg12
V04/09/20
p65
sg14
F35.5
sg15
F1580
sg16
S'C'
sg17
F-0.77000000000000002
sa(dp66
g3
I0
sg4
F1.49
sg5
F4.2699999999999996
sg6
F1.49
sg7
VN/A
p67
sg9
F1.49
sg10
F1.49
sg11
F1.49
sg12
V04/09/20
p68
sg14
F35.75
sg15
F1490
sg16
S'C'
sg17
F-0.75
sa(dp69
g3
I0
sg4
F1.4099999999999999
sg5
F4.5199999999999996
sg6
F1.4099999999999999
sg7
VN/A
p70
sg9
F1.4099999999999999
sg10
F1.4099999999999999
sg11
F1.4099999999999999
sg12
V04/09/20
p71
sg14
F36
sg15
F1410
sg16
S'C'
sg17
F-0.72999999999999998
sa(dp72
g3
I0
sg4
F1.3300000000000001
sg5
F4.7699999999999996
sg6
F1.3300000000000001
sg7
VN/A
p73
sg9
F1.3300000000000001
sg10
F1.3300000000000001
sg11
F1.3300000000000001
sg12
V04/09/20
p74
sg14
F36.25
sg15
F1330
sg16
S'C'
sg17
F-0.69999999999999996
sa(dp75
g3
I0
sg4
F1.26
sg5
F5.0199999999999996
sg6
F1.26
sg7
VN/A
p76
sg9
F1.26
sg10
F1.26
sg11
F1.26
sg12
V04/09/20
p77
sg14
F36.5
sg15
F1260
sg16
S'C'
sg17
F-0.67000000000000004
sa(dp78
g3
I0
sg4
F1.1899999999999999
sg5
F5.2699999999999996
sg6
F1.1899999999999999
sg7
VN/A
p79
sg9
F1.1899999999999999
sg10
F1.1899999999999999
sg11
F1.1899999999999999
sg12
V04/09/20
p80
sg14
F36.75
sg15
F1190
sg16
S'C'
sg17
F-0.65000000000000002
sa(dp81
g3
I0
sg4
F1.1299999999999999
sg5
F5.5199999999999996
sg6
F1.1299999999999999
sg7
VN/A
p82
sg9
F1.1299999999999999
sg10
F1.1299999999999999
sg11
F1.1299999999999999
sg12
V04/09/20
p83
sg14
F37
sg15
F1130
sg16
S'C'
sg17
F-0.60999999999999999
sa(dp84
g3
I0
sg4
F1.0600000000000001
sg5
F5.7699999999999996
sg6
F1.0600000000000001
sg7
VN/A
p85
sg9
F1.0600000000000001
sg10
F1.0600000000000001
sg11
F1.0600000000000001
sg12
V04/09/20
p86
sg14
F37.25
sg15
F1060
sg16
S'C'
sg17
F-0.59999999999999998
sa(dp87
g3
I0
sg4
F1.01
sg5
F6.0199999999999996
sg6
F1.01
sg7
VN/A
p88
sg9
F1.01
sg10
F1.01
sg11
F1.01
sg12
V04/09/20
p89
sg14
F37.5
sg15
F1010
sg16
S'C'
sg17
F-0.56000000000000005
sa(dp90
g3
I0
sg4
F0.94999999999999996
sg5
F6.2699999999999996
sg6
F0.94999999999999996
sg7
VN/A
p91
sg9
F0.94999999999999996
sg10
F0.94999999999999996
sg11
F0.94999999999999996
sg12
V04/09/20
p92
sg14
F37.75
sg15
F950
sg16
S'C'
sg17
F-0.54000000000000004
sa(dp93
g3
I0
sg4
F0.90000000000000002
sg5
F6.5199999999999996
sg6
F0.90000000000000002
sg7
VN/A
p94
sg9
F0.90000000000000002
sg10
F0.90000000000000002
sg11
F0.90000000000000002
sg12
V04/09/20
p95
sg14
F38
sg15
F900
sg16
S'C'
sg17
F-0.51000000000000001
sa(dp96
g3
I0
sg4
F0.84999999999999998
sg5
F6.7699999999999996
sg6
F0.84999999999999998
sg7
VN/A
p97
sg9
F0.84999999999999998
sg10
F0.84999999999999998
sg11
F0.84999999999999998
sg12
V04/09/20
p98
sg14
F38.25
sg15
F850
sg16
S'C'
sg17
F-0.48999999999999999
sa(dp99
g3
I0
sg4
F0.80000000000000004
sg5
F7.0199999999999996
sg6
F0.80000000000000004
sg7
VN/A
p100
sg9
F0.80000000000000004
sg10
F0.80000000000000004
sg11
F0.80000000000000004
sg12
V04/09/20
p101
sg14
F38.5
sg15
F800
sg16
S'C'
sg17
F-0.46999999999999997
sa(dp102
g3
I0
sg4
F0.76000000000000001
sg5
F7.2699999999999996
sg6
F0.76000000000000001
sg7
VN/A
p103
sg9
F0.76000000000000001
sg10
F0.76000000000000001
sg11
F0.76000000000000001
sg12
V04/09/20
p104
sg14
F38.75
sg15
F760
sg16
S'C'
sg17
F-0.44
sa(dp105
g3
I0
sg4
F0.70999999999999996
sg5
F7.5199999999999996
sg6
F0.70999999999999996
sg7
VN/A
p106
sg9
F0.70999999999999996
sg10
F0.70999999999999996
sg11
F0.70999999999999996
sg12
V04/09/20
p107
sg14
F39
sg15
F710
sg16
S'C'
sg17
F-0.42999999999999999
sa(dp108
g3
I0
sg4
F0.68000000000000005
sg5
F7.7699999999999996
sg6
F0.68000000000000005
sg7
VN/A
p109
sg9
F0.68000000000000005
sg10
F0.68000000000000005
sg11
F0.68000000000000005
sg12
V04/09/20
p110
sg14
F39.25
sg15
F680
sg16
S'C'
sg17
F-0.40000000000000002
sa(dp111
g3
I0
sg4
F0.64000000000000001
sg5
F8.0199999999999996
sg6
F0.64000000000000001
sg7
VN/A
p112
sg9
F0.64000000000000001
sg10
F0.64000000000000001
sg11
F0.64000000000000001
sg12
V04/09/20
p113
sg14
F39.5
sg15
F640
sg16
S'C'
sg17
F-0.38
sa(dp114
g3
I0
sg4
F0.59999999999999998
sg5
F8.2699999999999996
sg6
F0.59999999999999998
sg7
VN/A
p115
sg9
F0.59999999999999998
sg10
F0.59999999999999998
sg11
F0.59999999999999998
sg12
V04/09/20
p116
sg14
F39.75
sg15
F600
sg16
S'C'
sg17
F-0.35999999999999999
sa(dp117
g3
I0
sg4
F0.56999999999999995
sg5
F8.5199999999999996
sg6
F0.56999999999999995
sg7
VN/A
p118
sg9
F0.56999999999999995
sg10
F0.56999999999999995
sg11
F0.56999999999999995
sg12
V04/09/20
p119
sg14
F40
sg15
F570
sg16
S'C'
sg17
F-0.34000000000000002
sa(dp120
g3
I0
sg4
F0.54000000000000004
sg5
F8.7699999999999996
sg6
F0.54000000000000004
sg7
VN/A
p121
sg9
F0.54000000000000004
sg10
F0.54000000000000004
sg11
F0.54000000000000004
sg12
V04/09/20
p122
sg14
F40.25
sg15
F540
sg16
S'C'
sg17
F-0.32000000000000001
sa(dp123
g3
I0
sg4
F0.51000000000000001
sg5
F9.0199999999999996
sg6
F0.51000000000000001
sg7
VN/A
p124
sg9
F0.51000000000000001
sg10
F0.51000000000000001
sg11
F0.51000000000000001
sg12
V04/09/20
p125
sg14
F40.5
sg15
F510
sg16
S'C'
sg17
F-0.31
sa(dp126
g3
I0
sg4
F0.48999999999999999
sg5
F9.2699999999999996
sg6
F0.48999999999999999
sg7
VN/A
p127
sg9
F0.48999999999999999
sg10
F0.48999999999999999
sg11
F0.48999999999999999
sg12
V04/09/20
p128
sg14
F40.75
sg15
F490
sg16
S'C'
sg17
F-0.28000000000000003
sa(dp129
g3
I0
sg4
F0.46000000000000002
sg5
F9.5199999999999996
sg6
F0.46000000000000002
sg7
VN/A
p130
sg9
F0.46000000000000002
sg10
F0.46000000000000002
sg11
F0.46000000000000002
sg12
V04/09/20
p131
sg14
F41
sg15
F460
sg16
S'C'
sg17
F-0.27000000000000002
sa(dp132
g3
I0
sg4
F0.44
sg5
F9.7699999999999996
sg6
F0.44
sg7
VN/A
p133
sg9
F0.44
sg10
F0.44
sg11
F0.44
sg12
V04/09/20
p134
sg14
F41.25
sg15
F440
sg16
S'C'
sg17
F-0.25
sa(dp135
g3
I0
sg4
F0.41999999999999998
sg5
F10.02
sg6
F0.41999999999999998
sg7
VN/A
p136
sg9
F0.41999999999999998
sg10
F0.41999999999999998
sg11
F0.41999999999999998
sg12
V04/09/20
p137
sg14
F41.5
sg15
F420
sg16
S'C'
sg17
F-0.23999999999999999
sa(dp138
g3
I0
sg4
F0.40000000000000002
sg5
F10.27
sg6
F0.40000000000000002
sg7
VN/A
p139
sg9
F0.40000000000000002
sg10
F0.40000000000000002
sg11
F0.40000000000000002
sg12
V04/09/20
p140
sg14
F41.75
sg15
F400
sg16
S'C'
sg17
F-0.22
sa(dp141
g3
I0
sg4
F0.38
sg5
F10.52
sg6
F0.38
sg7
VN/A
p142
sg9
F0.38
sg10
F0.38
sg11
F0.38
sg12
V04/09/20
p143
sg14
F42
sg15
F380
sg16
S'C'
sg17
F-0.20999999999999999
sa(dp144
g3
I0
sg4
F0.37
sg5
F10.77
sg6
F0.37
sg7
VN/A
p145
sg9
F0.37
sg10
F0.37
sg11
F0.37
sg12
V04/09/20
p146
sg14
F42.25
sg15
F370
sg16
S'C'
sg17
F-0.19
sa(dp147
g3
I0
sg4
F0.34999999999999998
sg5
F11.02
sg6
F0.34999999999999998
sg7
VN/A
p148
sg9
F0.34999999999999998
sg10
F0.34999999999999998
sg11
F0.34999999999999998
sg12
V04/09/20
p149
sg14
F42.5
sg15
F350
sg16
S'C'
sg17
F-0.17999999999999999
sa(dp150
g3
I0
sg4
F0.33000000000000002
sg5
F11.27
sg6
F0.33000000000000002
sg7
VN/A
p151
sg9
F0.33000000000000002
sg10
F0.33000000000000002
sg11
F0.33000000000000002
sg12
V04/09/20
p152
sg14
F42.75
sg15
F330
sg16
S'C'
sg17
F-0.17999999999999999
sa(dp153
g3
I0
sg4
F0.32000000000000001
sg5
F11.52
sg6
F0.32000000000000001
sg7
VN/A
p154
sg9
F0.32000000000000001
sg10
F0.32000000000000001
sg11
F0.32000000000000001
sg12
V04/09/20
p155
sg14
F43
sg15
F320
sg16
S'C'
sg17
F-0.16
sa(dp156
g3
I0
sg4
F0.31
sg5
F11.77
sg6
F0.31
sg7
VN/A
p157
sg9
F0.31
sg10
F0.31
sg11
F0.31
sg12
V04/09/20
p158
sg14
F43.25
sg15
F310
sg16
S'C'
sg17
F-0.14999999999999999
sa(dp159
g3
I0
sg4
F0.29999999999999999
sg5
F12.02
sg6
F0.29999999999999999
sg7
VN/A
p160
sg9
F0.29999999999999999
sg10
F0.29999999999999999
sg11
F0.29999999999999999
sg12
V04/09/20
p161
sg14
F43.5
sg15
F300
sg16
S'C'
sg17
F-0.14000000000000001
sa(dp162
g3
I0
sg4
F0.28999999999999998
sg5
F12.27
sg6
F0.28999999999999998
sg7
VN/A
p163
sg9
F0.28999999999999998
sg10
F0.28999999999999998
sg11
F0.28999999999999998
sg12
V04/09/20
p164
sg14
F43.75
sg15
F290
sg16
S'C'
sg17
F-0.13
sa(dp165
g3
I0
sg4
F0.27000000000000002
sg5
F12.52
sg6
F0.27000000000000002
sg7
VN/A
p166
sg9
F0.27000000000000002
sg10
F0.27000000000000002
sg11
F0.27000000000000002
sg12
V04/09/20
p167
sg14
F44
sg15
F270
sg16
S'C'
sg17
F-0.13
sa(dp168
g3
I0
sg4
F0.26000000000000001
sg5
F12.77
sg6
F0.26000000000000001
sg7
VN/A
p169
sg9
F0.26000000000000001
sg10
F0.26000000000000001
sg11
F0.26000000000000001
sg12
V04/09/20
p170
sg14
F44.25
sg15
F260
sg16
S'C'
sg17
F-0.12
sa(dp171
g3
I0
sg4
F0.26000000000000001
sg5
F13.02
sg6
F0.26000000000000001
sg7
VN/A
p172
sg9
F0.26000000000000001
sg10
F0.26000000000000001
sg11
F0.26000000000000001
sg12
V04/09/20
p173
sg14
F44.5
sg15
F260
sg16
S'C'
sg17
F-0.10000000000000001
sa(dp174
g3
I0
sg4
F0.25
sg5
F13.27
sg6
F0.25
sg7
VN/A
p175
sg9
F0.25
sg10
F0.25
sg11
F0.25
sg12
V04/09/20
p176
sg14
F44.75
sg15
F250
sg16
S'C'
sg17
F-0.10000000000000001
sa(dp177
g3
I0
sg4
F0.23999999999999999
sg5
F13.52
sg6
F0.23999999999999999
sg7
VN/A
p178
sg9
F0.23999999999999999
sg10
F0.23999999999999999
sg11
F0.23999999999999999
sg12
V04/09/20
p179
sg14
F45
sg15
F240
sg16
S'C'
sg17
F-0.089999999999999997
sa(dp180
g3
I0
sg4
F0.23000000000000001
sg5
F13.77
sg6
F0.23000000000000001
sg7
VN/A
p181
sg9
F0.23000000000000001
sg10
F0.23000000000000001
sg11
F0.23000000000000001
sg12
V04/09/20
p182
sg14
F45.25
sg15
F230
sg16
S'C'
sg17
F-0.089999999999999997
sa(dp183
g3
I0
sg4
F0.22
sg5
F14.02
sg6
F0.22
sg7
VN/A
p184
sg9
F0.22
sg10
F0.22
sg11
F0.22
sg12
V04/09/20
p185
sg14
F45.5
sg15
F220
sg16
S'C'
sg17
F-0.089999999999999997
sa(dp186
g3
I0
sg4
F0.22
sg5
F14.27
sg6
F0.22
sg7
VN/A
p187
sg9
F0.22
sg10
F0.22
sg11
F0.22
sg12
V04/09/20
p188
sg14
F45.75
sg15
F220
sg16
S'C'
sg17
F-0.080000000000000002
sa(dp189
g3
I0
sg4
F0.20999999999999999
sg5
F14.52
sg6
F0.20999999999999999
sg7
VN/A
p190
sg9
F0.20999999999999999
sg10
F0.20999999999999999
sg11
F0.20999999999999999
sg12
V04/09/20
p191
sg14
F46
sg15
F210
sg16
S'C'
sg17
F-0.080000000000000002
sa(dp192
g3
I0
sg4
F0.20000000000000001
sg5
F14.77
sg6
F0.20000000000000001
sg7
VN/A
p193
sg9
F0.20000000000000001
sg10
F0.20000000000000001
sg11
F0.20000000000000001
sg12
V04/09/20
p194
sg14
F46.25
sg15
F200
sg16
S'C'
sg17
F-0.070000000000000007
sa(dp195
g3
I0
sg4
F0.20000000000000001
sg5
F15.02
sg6
F0.20000000000000001
sg7
VN/A
p196
sg9
F0.20000000000000001
sg10
F0.20000000000000001
sg11
F0.20000000000000001
sg12
V04/09/20
p197
sg14
F46.5
sg15
F200
sg16
S'C'
sg17
F-0.059999999999999998
sa(dp198
g3
I0
sg4
F0.19
sg5
F15.27
sg6
F0.19
sg7
VN/A
p199
sg9
F0.19
sg10
F0.19
sg11
F0.19
sg12
V04/09/20
p200
sg14
F46.75
sg15
F190
sg16
S'C'
sg17
F-0.070000000000000007
sa(dp201
g3
I0
sg4
F0.19
sg5
F15.52
sg6
F0.19
sg7
VN/A
p202
sg9
F0.19
sg10
F0.19
sg11
F0.19
sg12
V04/09/20
p203
sg14
F47
sg15
F190
sg16
S'C'
sg17
F-0.059999999999999998
sa(dp204
g3
I0
sg4
F0.17999999999999999
sg5
F15.77
sg6
F0.17999999999999999
sg7
VN/A
p205
sg9
F0.17999999999999999
sg10
F0.17999999999999999
sg11
F0.17999999999999999
sg12
V04/09/20
p206
sg14
F47.25
sg15
F180
sg16
S'C'
sg17
F-0.059999999999999998
sa(dp207
g3
I0
sg4
F0.17999999999999999
sg5
F16.02
sg6
F0.17999999999999999
sg7
VN/A
p208
sg9
F0.17999999999999999
sg10
F0.17999999999999999
sg11
F0.17999999999999999
sg12
V04/09/20
p209
sg14
F47.5
sg15
F180
sg16
S'C'
sg17
F-0.050000000000000003
sa(dp210
g3
I0
sg4
F0.17000000000000001
sg5
F16.27
sg6
F0.17000000000000001
sg7
VN/A
p211
sg9
F0.17000000000000001
sg10
F0.17000000000000001
sg11
F0.17000000000000001
sg12
V04/09/20
p212
sg14
F47.75
sg15
F170
sg16
S'C'
sg17
F-0.050000000000000003
sa(dp213
g3
I0
sg4
F0.17000000000000001
sg5
F16.52
sg6
F0.17000000000000001
sg7
VN/A
p214
sg9
F0.17000000000000001
sg10
F0.17000000000000001
sg11
F0.17000000000000001
sg12
V04/09/20
p215
sg14
F48
sg15
F170
sg16
S'C'
sg17
F-0.040000000000000001
sa(dp216
g3
I0
sg4
F0.17000000000000001
sg5
F16.77
sg6
F0.17000000000000001
sg7
VN/A
p217
sg9
F0.17000000000000001
sg10
F0.17000000000000001
sg11
F0.17000000000000001
sg12
V04/09/20
p218
sg14
F48.25
sg15
F170
sg16
S'C'
sg17
F-0.040000000000000001
sa(dp219
g3
I0
sg4
F0.16
sg5
F17.02
sg6
F0.16
sg7
VN/A
p220
sg9
F0.16
sg10
F0.16
sg11
F0.16
sg12
V04/09/20
p221
sg14
F48.5
sg15
F160
sg16
S'C'
sg17
F-0.040000000000000001
sa(dp222
g3
I0
sg4
F0.16
sg5
F17.27
sg6
F0.16
sg7
VN/A
p223
sg9
F0.16
sg10
F0.16
sg11
F0.16
sg12
V04/09/20
p224
sg14
F48.75
sg15
F160
sg16
S'C'
sg17
F-0.029999999999999999
sa(dp225
g3
I0
sg4
F0.14999999999999999
sg5
F17.52
sg6
F0.14999999999999999
sg7
VN/A
p226
sg9
F0.14999999999999999
sg10
F0.14999999999999999
sg11
F0.14999999999999999
sg12
V04/09/20
p227
sg14
F49
sg15
F150
sg16
S'C'
sg17
F-0.040000000000000001
sa(dp228
g3
I0
sg4
F0.14999999999999999
sg5
F17.77
sg6
F0.14999999999999999
sg7
VN/A
p229
sg9
F0.14999999999999999
sg10
F0.14999999999999999
sg11
F0.14999999999999999
sg12
V04/09/20
p230
sg14
F49.25
sg15
F150
sg16
S'C'
sg17
F-0.029999999999999999
sa(dp231
g3
I0
sg4
F0.14999999999999999
sg5
F18.02
sg6
F0.14999999999999999
sg7
VN/A
p232
sg9
F0.14999999999999999
sg10
F0.14999999999999999
sg11
F0.14999999999999999
sg12
V04/09/20
p233
sg14
F49.5
sg15
F150
sg16
S'C'
sg17
F-0.029999999999999999
sa(dp234
g3
I0
sg4
F0.14000000000000001
sg5
F18.27
sg6
F0.14000000000000001
sg7
VN/A
p235
sg9
F0.14000000000000001
sg10
F0.14000000000000001
sg11
F0.14000000000000001
sg12
V04/09/20
p236
sg14
F49.75
sg15
F140
sg16
S'C'
sg17
F-0.029999999999999999
sa(dp237
g3
I0
sg4
F0.14000000000000001
sg5
F18.319999999999997
sg6
F0.14000000000000001
sg7
VN/A
p238
sg9
F0.14000000000000001
sg10
F0.14000000000000001
sg11
F0.14000000000000001
sg12
V04/09/20
p239
sg14
F49.799999999999997
sg15
F140
sg16
S'C'
sg17
F-0.029999999999999999
sa(dp240
g3
I0
sg4
F0.14000000000000001
sg5
F18.52
sg6
F0.14000000000000001
sg7
VN/A
p241
sg9
F0.14000000000000001
sg10
F0.14000000000000001
sg11
F0.14000000000000001
sg12
V04/09/20
p242
sg14
F50
sg15
F140
sg16
S'C'
sg17
F-0.029999999999999999
sa(dp243
g3
I0
sg4
F0.14000000000000001
sg5
F18.77
sg6
F0.14000000000000001
sg7
VN/A
p244
sg9
F0.14000000000000001
sg10
F0.14000000000000001
sg11
F0.14000000000000001
sg12
V04/09/20
p245
sg14
F50.25
sg15
F140
sg16
S'C'
sg17
F-0.02
sa(dp246
g3
I0
sg4
F0.13
sg5
F19.02
sg6
F0.13
sg7
VN/A
p247
sg9
F0.13
sg10
F0.13
sg11
F0.13
sg12
V04/09/20
p248
sg14
F50.5
sg15
F130
sg16
S'C'
sg17
F-0.029999999999999999
sa(dp249
g3
I0
sg4
F0.13
sg5
F19.27
sg6
F0.13
sg7
VN/A
p250
sg9
F0.13
sg10
F0.13
sg11
F0.13
sg12
V04/09/20
p251
sg14
F50.75
sg15
F130
sg16
S'C'
sg17
F-0.02
sa(dp252
g3
I0
sg4
F0.13
sg5
F19.52
sg6
F0.13
sg7
VN/A
p253
sg9
F0.13
sg10
F0.13
sg11
F0.13
sg12
V04/09/20
p254
sg14
F51
sg15
F130
sg16
S'C'
sg17
F-0.02
sa(dp255
g3
I0
sg4
F0.13
sg5
F19.77
sg6
F0.13
sg7
VN/A
p256
sg9
F0.13
sg10
F0.13
sg11
F0.13
sg12
V04/09/20
p257
sg14
F51.25
sg15
F130
sg16
S'C'
sg17
F-0.01
sa(dp258
g3
I0
sg4
F0.12
sg5
F20.02
sg6
F0.12
sg7
VN/A
p259
sg9
F0.12
sg10
F0.12
sg11
F0.12
sg12
V04/09/20
p260
sg14
F51.5
sg15
F120
sg16
S'C'
sg17
F-0.02
sa(dp261
g3
I0
sg4
F0.12
sg5
F20.27
sg6
F0.12
sg7
VN/A
p262
sg9
F0.12
sg10
F0.12
sg11
F0.12
sg12
V04/09/20
p263
sg14
F51.75
sg15
F120
sg16
S'C'
sg17
F-0.02
sa(dp264
g3
I0
sg4
F0.12
sg5
F20.52
sg6
F0.12
sg7
VN/A
p265
sg9
F0.12
sg10
F0.12
sg11
F0.12
sg12
V04/09/20
p266
sg14
F52
sg15
F120
sg16
S'C'
sg17
F-0.01
sa(dp267
g3
I0
sg4
F0.12
sg5
F20.77
sg6
F0.12
sg7
VN/A
p268
sg9
F0.12
sg10
F0.12
sg11
F0.12
sg12
V04/09/20
p269
sg14
F52.25
sg15
F120
sg16
S'C'
sg17
F-0.01
sa(dp270
g3
I0
sg4
F0.11
sg5
F21.02
sg6
F0.11
sg7
VN/A
p271
sg9
F0.11
sg10
F0.11
sg11
F0.11
sg12
V04/09/20
p272
sg14
F52.5
sg15
F110
sg16
S'C'
sg17
F-0.01
sa(dp273
g3
I0
sg4
F0.11
sg5
F21.27
sg6
F0.11
sg7
VN/A
p274
sg9
F0.11
sg10
F0.11
sg11
F0.11
sg12
V04/09/20
p275
sg14
F52.75
sg15
F110
sg16
S'C'
sg17
F-0.01
sa(dp276
g3
I0
sg4
F0.11
sg5
F21.52
sg6
F0.11
sg7
VN/A
p277
sg9
F0.11
sg10
F0.11
sg11
F0.11
sg12
V04/09/20
p278
sg14
F53
sg15
F110
sg16
S'C'
sg17
F-0.01
sa(dp279
g3
I0
sg4
F0.11
sg5
F21.77
sg6
F0.11
sg7
VN/A
p280
sg9
F0.11
sg10
F0.11
sg11
F0.11
sg12
V04/09/20
p281
sg14
F53.25
sg15
F110
sg16
S'C'
sg17
F0
sa(dp282
g3
I0
sg4
F0.11
sg5
F22.02
sg6
F0.11
sg7
VN/A
p283
sg9
F0.11
sg10
F0.11
sg11
F0.11
sg12
V04/09/20
p284
sg14
F53.5
sg15
F110
sg16
S'C'
sg17
F0
sa(dp285
g3
I0
sg4
F0.10000000000000001
sg5
F22.27
sg6
F0.10000000000000001
sg7
VN/A
p286
sg9
F0.10000000000000001
sg10
F0.10000000000000001
sg11
F0.10000000000000001
sg12
V04/09/20
p287
sg14
F53.75
sg15
F100
sg16
S'C'
sg17
F-0.01
sa(dp288
g3
I0
sg4
F0.10000000000000001
sg5
F22.52
sg6
F0.10000000000000001
sg7
VN/A
p289
sg9
F0.10000000000000001
sg10
F0.10000000000000001
sg11
F0.10000000000000001
sg12
V04/09/20
p290
sg14
F54
sg15
F100
sg16
S'C'
sg17
F-0.01
sa(dp291
g3
I0
sg4
F0.10000000000000001
sg5
F22.77
sg6
F0.10000000000000001
sg7
VN/A
p292
sg9
F0.10000000000000001
sg10
F0.10000000000000001
sg11
F0.10000000000000001
sg12
V04/09/20
p293
sg14
F54.25
sg15
F100
sg16
S'C'
sg17
F0
sa(dp294
g3
I0
sg4
F0.10000000000000001
sg5
F23.02
sg6
F0.10000000000000001
sg7
VN/A
p295
sg9
F0.10000000000000001
sg10
F0.10000000000000001
sg11
F0.10000000000000001
sg12
V04/09/20
p296
sg14
F54.5
sg15
F100
sg16
S'C'
sg17
F0
sa(dp297
g3
I0
sg4
F0.10000000000000001
sg5
F23.27
sg6
F0.10000000000000001
sg7
VN/A
p298
sg9
F0.10000000000000001
sg10
F0.10000000000000001
sg11
F0.10000000000000001
sg12
V04/09/20
p299
sg14
F54.75
sg15
F100
sg16
S'C'
sg17
F0
sa(dp300
g3
I0
sg4
F0.10000000000000001
sg5
F23.52
sg6
F0.10000000000000001
sg7
VN/A
p301
sg9
F0.10000000000000001
sg10
F0.10000000000000001
sg11
F0.10000000000000001
sg12
V04/09/20
p302
sg14
F55
sg15
F100
sg16
S'C'
sg17
F0
sa(dp303
g3
I0
sg4
F0.089999999999999997
sg5
F23.77
sg6
F0.089999999999999997
sg7
VN/A
p304
sg9
F0.089999999999999997
sg10
F0.089999999999999997
sg11
F0.089999999999999997
sg12
V04/09/20
p305
sg14
F55.25
sg15
F90
sg16
S'C'
sg17
F0
sa(dp306
g3
I0
sg4
F0.089999999999999997
sg5
F24.02
sg6
F0.089999999999999997
sg7
VN/A
p307
sg9
F0.089999999999999997
sg10
F0.089999999999999997
sg11
F0.089999999999999997
sg12
V04/09/20
p308
sg14
F55.5
sg15
F90
sg16
S'C'
sg17
F0
sa(dp309
g3
I0
sg4
F0.089999999999999997
sg5
F24.27
sg6
F0.089999999999999997
sg7
VN/A
p310
sg9
F0.089999999999999997
sg10
F0.089999999999999997
sg11
F0.089999999999999997
sg12
V04/09/20
p311
sg14
F55.75
sg15
F90
sg16
S'C'
sg17
F0
sa(dp312
g3
I0
sg4
F0.089999999999999997
sg5
F24.52
sg6
F0.089999999999999997
sg7
VN/A
p313
sg9
F0.089999999999999997
sg10
F0.089999999999999997
sg11
F0.089999999999999997
sg12
V04/09/20
p314
sg14
F56
sg15
F90
sg16
S'C'
sg17
F0
sa(dp315
g3
I0
sg4
F0.089999999999999997
sg5
F24.77
sg6
F0.089999999999999997
sg7
VN/A
p316
sg9
F0.089999999999999997
sg10
F0.089999999999999997
sg11
F0.089999999999999997
sg12
V04/09/20
p317
sg14
F56.25
sg15
F90
sg16
S'C'
sg17
F0.01
sa(dp318
g3
I0
sg4
F0.089999999999999997
sg5
F25.02
sg6
F0.089999999999999997
sg7
VN/A
p319
sg9
F0.089999999999999997
sg10
F0.089999999999999997
sg11
F0.089999999999999997
sg12
V04/09/20
p320
sg14
F56.5
sg15
F90
sg16
S'C'
sg17
F0.01
sa(dp321
g3
I0
sg4
F0.080000000000000002
sg5
F25.27
sg6
F0.080000000000000002
sg7
VN/A
p322
sg9
F0.080000000000000002
sg10
F0.080000000000000002
sg11
F0.080000000000000002
sg12
V04/09/20
p323
sg14
F56.75
sg15
F80
sg16
S'C'
sg17
F0
sa(dp324
g3
I0
sg4
F0.080000000000000002
sg5
F25.52
sg6
F0.080000000000000002
sg7
VN/A
p325
sg9
F0.080000000000000002
sg10
F0.080000000000000002
sg11
F0.080000000000000002
sg12
V04/09/20
p326
sg14
F57
sg15
F80
sg16
S'C'
sg17
F0
sa(dp327
g3
I0
sg4
F0.080000000000000002
sg5
F25.77
sg6
F0.080000000000000002
sg7
VN/A
p328
sg9
F0.080000000000000002
sg10
F0.080000000000000002
sg11
F0.080000000000000002
sg12
V04/09/20
p329
sg14
F57.25
sg15
F80
sg16
S'C'
sg17
F0
sa(dp330
g3
I0
sg4
F0.080000000000000002
sg5
F26.02
sg6
F0.080000000000000002
sg7
VN/A
p331
sg9
F0.080000000000000002
sg10
F0.080000000000000002
sg11
F0.080000000000000002
sg12
V04/09/20
p332
sg14
F57.5
sg15
F80
sg16
S'C'
sg17
F0.01
sa(dp333
g3
I0
sg4
F0.080000000000000002
sg5
F26.27
sg6
F0.080000000000000002
sg7
VN/A
p334
sg9
F0.080000000000000002
sg10
F0.080000000000000002
sg11
F0.080000000000000002
sg12
V04/09/20
p335
sg14
F57.75
sg15
F80
sg16
S'C'
sg17
F0.01
sa(dp336
g3
I0
sg4
F0.080000000000000002
sg5
F26.52
sg6
F0.080000000000000002
sg7
VN/A
p337
sg9
F0.080000000000000002
sg10
F0.080000000000000002
sg11
F0.080000000000000002
sg12
V04/09/20
p338
sg14
F58
sg15
F80
sg16
S'C'
sg17
F0.01
sa(dp339
g3
I0
sg4
F0.080000000000000002
sg5
F26.77
sg6
F0.080000000000000002
sg7
VN/A
p340
sg9
F0.080000000000000002
sg10
F0.080000000000000002
sg11
F0.080000000000000002
sg12
V04/09/20
p341
sg14
F58.25
sg15
F80
sg16
S'C'
sg17
F0.01
sa(dp342
g3
I0
sg4
F0.080000000000000002
sg5
F27.02
sg6
F0.080000000000000002
sg7
VN/A
p343
sg9
F0.080000000000000002
sg10
F0.080000000000000002
sg11
F0.080000000000000002
sg12
V04/09/20
p344
sg14
F58.5
sg15
F80
sg16
S'C'
sg17
F0.01
sa(dp345
g3
I0
sg4
F0.070000000000000007
sg5
F27.27
sg6
F0.070000000000000007
sg7
VN/A
p346
sg9
F0.070000000000000007
sg10
F0.070000000000000007
sg11
F0.070000000000000007
sg12
V04/09/20
p347
sg14
F58.75
sg15
F70
sg16
S'C'
sg17
F0
sa(dp348
g3
I0
sg4
F0.070000000000000007
sg5
F27.52
sg6
F0.070000000000000007
sg7
VN/A
p349
sg9
F0.070000000000000007
sg10
F0.070000000000000007
sg11
F0.070000000000000007
sg12
V04/09/20
p350
sg14
F59
sg15
F70
sg16
S'C'
sg17
F0.01
sa(dp351
g3
I0
sg4
F0.070000000000000007
sg5
F27.77
sg6
F0.070000000000000007
sg7
VN/A
p352
sg9
F0.070000000000000007
sg10
F0.070000000000000007
sg11
F0.070000000000000007
sg12
V04/09/20
p353
sg14
F59.25
sg15
F70
sg16
S'C'
sg17
F0.01
sa(dp354
g3
I0
sg4
F0.070000000000000007
sg5
F28.02
sg6
F0.070000000000000007
sg7
VN/A
p355
sg9
F0.070000000000000007
sg10
F0.070000000000000007
sg11
F0.070000000000000007
sg12
V04/09/20
p356
sg14
F59.5
sg15
F70
sg16
S'C'
sg17
F0.01
sa(dp357
g3
I0
sg4
F0.070000000000000007
sg5
F28.27
sg6
F0.070000000000000007
sg7
VN/A
p358
sg9
F0.070000000000000007
sg10
F0.070000000000000007
sg11
F0.070000000000000007
sg12
V04/09/20
p359
sg14
F59.75
sg15
F70
sg16
S'C'
sg17
F0.01
sa(dp360
g3
I0
sg4
F0.070000000000000007
sg5
F28.52
sg6
F0.070000000000000007
sg7
VN/A
p361
sg9
F0.070000000000000007
sg10
F0.070000000000000007
sg11
F0.070000000000000007
sg12
V04/09/20
p362
sg14
F60
sg15
F70
sg16
S'C'
sg17
F0.01
sa(dp363
g3
I0
sg4
F0.070000000000000007
sg5
F28.77
sg6
F0.070000000000000007
sg7
VN/A
p364
sg9
F0.070000000000000007
sg10
F0.070000000000000007
sg11
F0.070000000000000007
sg12
V04/09/20
p365
sg14
F60.25
sg15
F70
sg16
S'C'
sg17
F0.01
sa(dp366
g3
I0
sg4
F0.070000000000000007
sg5
F29.02
sg6
F0.070000000000000007
sg7
VN/A
p367
sg9
F0.070000000000000007
sg10
F0.070000000000000007
sg11
F0.070000000000000007
sg12
V04/09/20
p368
sg14
F60.5
sg15
F70
sg16
S'C'
sg17
F0.01
sa(dp369
g3
I0
sg4
F0.070000000000000007
sg5
F29.27
sg6
F0.070000000000000007
sg7
VN/A
p370
sg9
F0.070000000000000007
sg10
F0.070000000000000007
sg11
F0.070000000000000007
sg12
V04/09/20
p371
sg14
F60.75
sg15
F70
sg16
S'C'
sg17
F0.01
sa(dp372
g3
I0
sg4
F0.070000000000000007
sg5
F29.52
sg6
F0.070000000000000007
sg7
VN/A
p373
sg9
F0.070000000000000007
sg10
F0.070000000000000007
sg11
F0.070000000000000007
sg12
V04/09/20
p374
sg14
F61
sg15
F70
sg16
S'C'
sg17
F0.01
sa(dp375
g3
I0
sg4
F0.059999999999999998
sg5
F29.77
sg6
F0.059999999999999998
sg7
VN/A
p376
sg9
F0.059999999999999998
sg10
F0.059999999999999998
sg11
F0.059999999999999998
sg12
V04/09/20
p377
sg14
F61.25
sg15
F60
sg16
S'C'
sg17
F0.01
sa(dp378
g3
I0
sg4
F0.059999999999999998
sg5
F30.02
sg6
F0.059999999999999998
sg7
VN/A
p379
sg9
F0.059999999999999998
sg10
F0.059999999999999998
sg11
F0.059999999999999998
sg12
V04/09/20
p380
sg14
F61.5
sg15
F60
sg16
S'C'
sg17
F0.01
sa(dp381
g3
I0
sg4
F0.059999999999999998
sg5
F30.27
sg6
F0.059999999999999998
sg7
VN/A
p382
sg9
F0.059999999999999998
sg10
F0.059999999999999998
sg11
F0.059999999999999998
sg12
V04/09/20
p383
sg14
F61.75
sg15
F60
sg16
S'C'
sg17
F0.01
sa(dp384
g3
I0
sg4
F0.059999999999999998
sg5
F30.52
sg6
F0.059999999999999998
sg7
VN/A
p385
sg9
F0.059999999999999998
sg10
F0.059999999999999998
sg11
F0.059999999999999998
sg12
V04/09/20
p386
sg14
F62
sg15
F60
sg16
S'C'
sg17
F0.01
sa(dp387
g3
I0
sg4
F0.059999999999999998
sg5
F30.77
sg6
F0.059999999999999998
sg7
VN/A
p388
sg9
F0.059999999999999998
sg10
F0.059999999999999998
sg11
F0.059999999999999998
sg12
V04/09/20
p389
sg14
F62.25
sg15
F60
sg16
S'C'
sg17
F0.01
sa(dp390
g3
I0
sg4
F0.059999999999999998
sg5
F31.02
sg6
F0.059999999999999998
sg7
VN/A
p391
sg9
F0.059999999999999998
sg10
F0.059999999999999998
sg11
F0.059999999999999998
sg12
V04/09/20
p392
sg14
F62.5
sg15
F60
sg16
S'C'
sg17
F0.01
sa(dp393
g3
I0
sg4
F0.059999999999999998
sg5
F31.27
sg6
F0.059999999999999998
sg7
VN/A
p394
sg9
F0.059999999999999998
sg10
F0.059999999999999998
sg11
F0.059999999999999998
sg12
V04/09/20
p395
sg14
F62.75
sg15
F60
sg16
S'C'
sg17
F0.01
sa(dp396
g3
I0
sg4
F0.059999999999999998
sg5
F31.52
sg6
F0.059999999999999998
sg7
VN/A
p397
sg9
F0.059999999999999998
sg10
F0.059999999999999998
sg11
F0.059999999999999998
sg12
V04/09/20
p398
sg14
F63
sg15
F60
sg16
S'C'
sg17
F0.01
sa(dp399
g3
I0
sg4
F0.059999999999999998
sg5
F31.77
sg6
F0.059999999999999998
sg7
VN/A
p400
sg9
F0.059999999999999998
sg10
F0.059999999999999998
sg11
F0.059999999999999998
sg12
V04/09/20
p401
sg14
F63.25
sg15
F60
sg16
S'C'
sg17
F0.01
sa(dp402
g3
I0
sg4
F0.059999999999999998
sg5
F32.019999999999996
sg6
F0.059999999999999998
sg7
VN/A
p403
sg9
F0.059999999999999998
sg10
F0.059999999999999998
sg11
F0.059999999999999998
sg12
V04/09/20
p404
sg14
F63.5
sg15
F60
sg16
S'C'
sg17
F0.02
sa(dp405
g3
I0
sg4
F0.059999999999999998
sg5
F32.269999999999996
sg6
F0.059999999999999998
sg7
VN/A
p406
sg9
F0.059999999999999998
sg10
F0.059999999999999998
sg11
F0.059999999999999998
sg12
V04/09/20
p407
sg14
F63.75
sg15
F60
sg16
S'C'
sg17
F0.02
sa(dp408
g3
I0
sg4
F0.059999999999999998
sg5
F32.519999999999996
sg6
F0.059999999999999998
sg7
VN/A
p409
sg9
F0.059999999999999998
sg10
F0.059999999999999998
sg11
F0.059999999999999998
sg12
V04/09/20
p410
sg14
F64
sg15
F60
sg16
S'C'
sg17
F0.02
sa(dp411
g3
I0
sg4
F0.050000000000000003
sg5
F33.019999999999996
sg6
F0.050000000000000003
sg7
VN/A
p412
sg9
F0.050000000000000003
sg10
F0.050000000000000003
sg11
F0.050000000000000003
sg12
V04/09/20
p413
sg14
F64.5
sg15
F50
sg16
S'C'
sg17
F0.01
sa(dp414
g3
I0
sg4
F0.050000000000000003
sg5
F33.519999999999996
sg6
F0.050000000000000003
sg7
VN/A
p415
sg9
F0.050000000000000003
sg10
F0.050000000000000003
sg11
F0.050000000000000003
sg12
V04/09/20
p416
sg14
F65
sg15
F50
sg16
S'C'
sg17
F0.01
sa(dp417
g3
I0
sg4
F0.050000000000000003
sg5
F33.769999999999996
sg6
F0.050000000000000003
sg7
VN/A
p418
sg9
F0.050000000000000003
sg10
F0.050000000000000003
sg11
F0.050000000000000003
sg12
V04/09/20
p419
sg14
F65.25
sg15
F50
sg16
S'C'
sg17
F0.01
sa(dp420
g3
I0
sg4
F0.050000000000000003
sg5
F34.019999999999996
sg6
F0.050000000000000003
sg7
VN/A
p421
sg9
F0.050000000000000003
sg10
F0.050000000000000003
sg11
F0.050000000000000003
sg12
V04/09/20
p422
sg14
F65.5
sg15
F50
sg16
S'C'
sg17
F0.01
sa(dp423
g3
I0
sg4
F0.050000000000000003
sg5
F34.519999999999996
sg6
F0.050000000000000003
sg7
VN/A
p424
sg9
F0.050000000000000003
sg10
F0.050000000000000003
sg11
F0.050000000000000003
sg12
V04/09/20
p425
sg14
F66
sg15
F50
sg16
S'C'
sg17
F0.01
sa(dp426
g3
I0
sg4
F0.050000000000000003
sg5
F34.769999999999996
sg6
F0.050000000000000003
sg7
VN/A
p427
sg9
F0.050000000000000003
sg10
F0.050000000000000003
sg11
F0.050000000000000003
sg12
V04/09/20
p428
sg14
F66.25
sg15
F50
sg16
S'C'
sg17
F0.02
sa(dp429
g3
I0
sg4
F0.050000000000000003
sg5
F35.019999999999996
sg6
F0.050000000000000003
sg7
VN/A
p430
sg9
F0.050000000000000003
sg10
F0.050000000000000003
sg11
F0.050000000000000003
sg12
V04/09/20
p431
sg14
F66.5
sg15
F50
sg16
S'C'
sg17
F0.02
sa(dp432
g3
I0
sg4
F0.050000000000000003
sg5
F35.269999999999996
sg6
F0.050000000000000003
sg7
VN/A
p433
sg9
F0.050000000000000003
sg10
F0.050000000000000003
sg11
F0.050000000000000003
sg12
V04/09/20
p434
sg14
F66.75
sg15
F50
sg16
S'C'
sg17
F0.02
sa(dp435
g3
I0
sg4
F0.050000000000000003
sg5
F35.519999999999996
sg6
F0.050000000000000003
sg7
VN/A
p436
sg9
F0.050000000000000003
sg10
F0.050000000000000003
sg11
F0.050000000000000003
sg12
V04/09/20
p437
sg14
F67
sg15
F50
sg16
S'C'
sg17
F0.02
sa(dp438
g3
I0
sg4
F0.050000000000000003
sg5
F36.019999999999996
sg6
F0.050000000000000003
sg7
VN/A
p439
sg9
F0.050000000000000003
sg10
F0.050000000000000003
sg11
F0.050000000000000003
sg12
V04/09/20
p440
sg14
F67.5
sg15
F50
sg16
S'C'
sg17
F0.02
sa(dp441
g3
I0
sg4
F0.040000000000000001
sg5
F36.519999999999996
sg6
F0.040000000000000001
sg7
VN/A
p442
sg9
F0.040000000000000001
sg10
F0.040000000000000001
sg11
F0.040000000000000001
sg12
V04/09/20
p443
sg14
F68
sg15
F40
sg16
S'C'
sg17
F0.01
sa(dp444
g3
I0
sg4
F0.040000000000000001
sg5
F37.019999999999996
sg6
F0.040000000000000001
sg7
VN/A
p445
sg9
F0.040000000000000001
sg10
F0.040000000000000001
sg11
F0.040000000000000001
sg12
V04/09/20
p446
sg14
F68.5
sg15
F40
sg16
S'C'
sg17
F0.01
sa(dp447
g3
I0
sg4
F0.040000000000000001
sg5
F37.519999999999996
sg6
F0.040000000000000001
sg7
VN/A
p448
sg9
F0.040000000000000001
sg10
F0.040000000000000001
sg11
F0.040000000000000001
sg12
V04/09/20
p449
sg14
F69
sg15
F40
sg16
S'C'
sg17
F0.01
sa(dp450
g3
I0
sg4
F0.040000000000000001
sg5
F38.019999999999996
sg6
F0.040000000000000001
sg7
VN/A
p451
sg9
F0.040000000000000001
sg10
F0.040000000000000001
sg11
F0.040000000000000001
sg12
V04/09/20
p452
sg14
F69.5
sg15
F40
sg16
S'C'
sg17
F0.01
sa(dp453
g3
I0
sg4
F0.040000000000000001
sg5
F38.519999999999996
sg6
F0.040000000000000001
sg7
VN/A
p454
sg9
F0.040000000000000001
sg10
F0.040000000000000001
sg11
F0.040000000000000001
sg12
V04/09/20
p455
sg14
F70
sg15
F40
sg16
S'C'
sg17
F0.01
sa(dp456
g3
I0
sg4
F0.040000000000000001
sg5
F39.019999999999996
sg6
F0.040000000000000001
sg7
VN/A
p457
sg9
F0.040000000000000001
sg10
F0.040000000000000001
sg11
F0.040000000000000001
sg12
V04/09/20
p458
sg14
F70.5
sg15
F40
sg16
S'C'
sg17
F0.02
sa(dp459
g3
I0
sg4
F0.040000000000000001
sg5
F39.519999999999996
sg6
F0.040000000000000001
sg7
VN/A
p460
sg9
F0.040000000000000001
sg10
F0.040000000000000001
sg11
F0.040000000000000001
sg12
V04/09/20
p461
sg14
F71
sg15
F40
sg16
S'C'
sg17
F0.02
sa(dp462
g3
I0
sg4
F0.040000000000000001
sg5
F40.019999999999996
sg6
F0.040000000000000001
sg7
VN/A
p463
sg9
F0.040000000000000001
sg10
F0.040000000000000001
sg11
F0.040000000000000001
sg12
V04/09/20
p464
sg14
F71.5
sg15
F40
sg16
S'C'
sg17
F0.02
sa(dp465
g3
I0
sg4
F0.040000000000000001
sg5
F40.519999999999996
sg6
F0.040000000000000001
sg7
VN/A
p466
sg9
F0.040000000000000001
sg10
F0.040000000000000001
sg11
F0.040000000000000001
sg12
V04/09/20
p467
sg14
F72
sg15
F40
sg16
S'C'
sg17
F0.02
sa(dp468
g3
I0
sg4
F0.040000000000000001
sg5
F41.019999999999996
sg6
F0.040000000000000001
sg7
VN/A
p469
sg9
F0.040000000000000001
sg10
F0.040000000000000001
sg11
F0.040000000000000001
sg12
V04/09/20
p470
sg14
F72.5
sg15
F40
sg16
S'C'
sg17
F0.02
sa(dp471
g3
I0
sg4
F0.040000000000000001
sg5
F41.519999999999996
sg6
F0.040000000000000001
sg7
VN/A
p472
sg9
F0.040000000000000001
sg10
F0.040000000000000001
sg11
F0.040000000000000001
sg12
V04/09/20
p473
sg14
F73
sg15
F40
sg16
S'C'
sg17
F0.02
sa(dp474
g3
I0
sg4
F0.029999999999999999
sg5
F42.019999999999996
sg6
F0.029999999999999999
sg7
VN/A
p475
sg9
F0.029999999999999999
sg10
F0.029999999999999999
sg11
F0.029999999999999999
sg12
V04/09/20
p476
sg14
F73.5
sg15
F30
sg16
S'C'
sg17
F0.01
sa(dp477
g3
I0
sg4
F0.029999999999999999
sg5
F42.519999999999996
sg6
F0.029999999999999999
sg7
VN/A
p478
sg9
F0.029999999999999999
sg10
F0.029999999999999999
sg11
F0.029999999999999999
sg12
V04/09/20
p479
sg14
F74
sg15
F30
sg16
S'C'
sg17
F0.01
sa(dp480
g3
I0
sg4
F0.029999999999999999
sg5
F43.019999999999996
sg6
F0.029999999999999999
sg7
VN/A
p481
sg9
F0.029999999999999999
sg10
F0.029999999999999999
sg11
F0.029999999999999999
sg12
V04/09/20
p482
sg14
F74.5
sg15
F30
sg16
S'C'
sg17
F0.01
sa(dp483
g3
I0
sg4
F0.029999999999999999
sg5
F43.519999999999996
sg6
F0.029999999999999999
sg7
VN/A
p484
sg9
F0.029999999999999999
sg10
F0.029999999999999999
sg11
F0.029999999999999999
sg12
V04/09/20
p485
sg14
F75
sg15
F30
sg16
S'C'
sg17
F0.01
sa(dp486
g3
I0
sg4
F0.029999999999999999
sg5
F44.019999999999996
sg6
F0.029999999999999999
sg7
VN/A
p487
sg9
F0.029999999999999999
sg10
F0.029999999999999999
sg11
F0.029999999999999999
sg12
V04/09/20
p488
sg14
F75.5
sg15
F30
sg16
S'C'
sg17
F0.01
sa(dp489
g3
I0
sg4
F0.029999999999999999
sg5
F44.519999999999996
sg6
F0.029999999999999999
sg7
VN/A
p490
sg9
F0.029999999999999999
sg10
F0.029999999999999999
sg11
F0.029999999999999999
sg12
V04/09/20
p491
sg14
F76
sg15
F30
sg16
S'C'
sg17
F0.01
sa(dp492
g3
I0
sg4
F0.029999999999999999
sg5
F45.019999999999996
sg6
F0.029999999999999999
sg7
VN/A
p493
sg9
F0.029999999999999999
sg10
F0.029999999999999999
sg11
F0.029999999999999999
sg12
V04/09/20
p494
sg14
F76.5
sg15
F30
sg16
S'C'
sg17
F0.01
sa(dp495
g3
I0
sg4
F0.029999999999999999
sg5
F45.519999999999996
sg6
F0.029999999999999999
sg7
VN/A
p496
sg9
F0.029999999999999999
sg10
F0.029999999999999999
sg11
F0.029999999999999999
sg12
V04/09/20
p497
sg14
F77
sg15
F30
sg16
S'C'
sg17
F0.01
sa(dp498
g3
I0
sg4
F0.029999999999999999
sg5
F46.019999999999996
sg6
F0.029999999999999999
sg7
VN/A
p499
sg9
F0.029999999999999999
sg10
F0.029999999999999999
sg11
F0.029999999999999999
sg12
V04/09/20
p500
sg14
F77.5
sg15
F30
sg16
S'C'
sg17
F0.02
sa(dp501
g3
I0
sg4
F0.029999999999999999
sg5
F46.519999999999996
sg6
F0.029999999999999999
sg7
VN/A
p502
sg9
F0.029999999999999999
sg10
F0.029999999999999999
sg11
F0.029999999999999999
sg12
V04/09/20
p503
sg14
F78
sg15
F30
sg16
S'C'
sg17
F0.02
sa(dp504
g3
I0
sg4
F0.029999999999999999
sg5
F47.019999999999996
sg6
F0.029999999999999999
sg7
VN/A
p505
sg9
F0.029999999999999999
sg10
F0.029999999999999999
sg11
F0.029999999999999999
sg12
V04/09/20
p506
sg14
F78.5
sg15
F30
sg16
S'C'
sg17
F0.02
sa(dp507
g3
I0
sg4
F0.029999999999999999
sg5
F47.269999999999996
sg6
F0.029999999999999999
sg7
VN/A
p508
sg9
F0.029999999999999999
sg10
F0.029999999999999999
sg11
F0.029999999999999999
sg12
V04/09/20
p509
sg14
F78.75
sg15
F30
sg16
S'C'
sg17
F0.02
sa(dp510
g3
I0
sg4
F0.029999999999999999
sg5
F47.519999999999996
sg6
F0.029999999999999999
sg7
VN/A
p511
sg9
F0.029999999999999999
sg10
F0.029999999999999999
sg11
F0.029999999999999999
sg12
V04/09/20
p512
sg14
F79
sg15
F30
sg16
S'C'
sg17
F0.02
sa(dp513
g3
I0
sg4
F0.029999999999999999
sg5
F48.019999999999996
sg6
F0.029999999999999999
sg7
VN/A
p514
sg9
F0.029999999999999999
sg10
F0.029999999999999999
sg11
F0.029999999999999999
sg12
V04/09/20
p515
sg14
F79.5
sg15
F30
sg16
S'C'
sg17
F0.02
sa(dp516
g3
I0
sg4
F0.029999999999999999
sg5
F48.519999999999996
sg6
F0.029999999999999999
sg7
VN/A
p517
sg9
F0.029999999999999999
sg10
F0.029999999999999999
sg11
F0.029999999999999999
sg12
V04/09/20
p518
sg14
F80
sg15
F30
sg16
S'C'
sg17
F0.02
sa(dp519
g3
I0
sg4
F0.029999999999999999
sg5
F49.019999999999996
sg6
F0.029999999999999999
sg7
VN/A
p520
sg9
F0.029999999999999999
sg10
F0.029999999999999999
sg11
F0.029999999999999999
sg12
V04/09/20
p521
sg14
F80.5
sg15
F30
sg16
S'C'
sg17
F0.02
sa(dp522
g3
I0
sg4
F0.029999999999999999
sg5
F49.519999999999996
sg6
F0.029999999999999999
sg7
VN/A
p523
sg9
F0.029999999999999999
sg10
F0.029999999999999999
sg11
F0.029999999999999999
sg12
V04/09/20
p524
sg14
F81
sg15
F30
sg16
S'C'
sg17
F0.02
sa(dp525
g3
I0
sg4
F0.029999999999999999
sg5
F50.019999999999996
sg6
F0.029999999999999999
sg7
VN/A
p526
sg9
F0.029999999999999999
sg10
F0.029999999999999999
sg11
F0.029999999999999999
sg12
V04/09/20
p527
sg14
F81.5
sg15
F30
sg16
S'C'
sg17
F0.02
sa(dp528
g3
I0
sg4
F0.02
sg5
F50.519999999999996
sg6
F0.02
sg7
VN/A
p529
sg9
F0.02
sg10
F0.02
sg11
F0.02
sg12
V04/09/20
p530
sg14
F82
sg15
F20
sg16
S'C'
sg17
F0.01
sa(dp531
g3
I0
sg4
F0.02
sg5
F51.019999999999996
sg6
F0.02
sg7
VN/A
p532
sg9
F0.02
sg10
F0.02
sg11
F0.02
sg12
V04/09/20
p533
sg14
F82.5
sg15
F20
sg16
S'C'
sg17
F0.01
sa(dp534
g3
I0
sg4
F0.02
sg5
F51.519999999999996
sg6
F0.02
sg7
VN/A
p535
sg9
F0.02
sg10
F0.02
sg11
F0.02
sg12
V04/09/20
p536
sg14
F83
sg15
F20
sg16
S'C'
sg17
F0.01
sa(dp537
g3
I0
sg4
F0.02
sg5
F52.019999999999996
sg6
F0.02
sg7
VN/A
p538
sg9
F0.02
sg10
F0.02
sg11
F0.02
sg12
V04/09/20
p539
sg14
F83.5
sg15
F20
sg16
S'C'
sg17
F0.01
sa(dp540
g3
I0
sg4
F0.02
sg5
F52.519999999999996
sg6
F0.02
sg7
VN/A
p541
sg9
F0.02
sg10
F0.02
sg11
F0.02
sg12
V04/09/20
p542
sg14
F84
sg15
F20
sg16
S'C'
sg17
F0.01
sa(dp543
g3
I0
sg4
F0.02
sg5
F53.019999999999996
sg6
F0.02
sg7
VN/A
p544
sg9
F0.02
sg10
F0.02
sg11
F0.02
sg12
V04/09/20
p545
sg14
F84.5
sg15
F20
sg16
S'C'
sg17
F0.01
sa(dp546
g3
I0
sg4
F23
sg5
F53.519999999999996
sg6
F23
sg7
VN/A
p547
sg9
F23
sg10
F23
sg11
F23
sg12
V04/09/20
p548
sg14
F85
sg15
F23000
sg16
S'C'
sg17
F-1.3799999999999999
sa(dp549
g3
I0
sg4
F22.510000000000002
sg5
F58.519999999999996
sg6
F22.510000000000002
sg7
VN/A
p550
sg9
F22.510000000000002
sg10
F22.510000000000002
sg11
F22.510000000000002
sg12
V04/09/20
p551
sg14
F90
sg15
F22510
sg16
S'C'
sg17
F-1.3700000000000001
sa(dp552
g3
I0
sg4
F22.010000000000002
sg5
F63.519999999999996
sg6
F22.010000000000002
sg7
VN/A
p553
sg9
F22.010000000000002
sg10
F22.010000000000002
sg11
F22.010000000000002
sg12
V04/09/20
p554
sg14
F95
sg15
F22010
sg16
S'C'
sg17
F-1.3799999999999999
sa(lp555
(dp556
g3
I0
sg4
F3.3300000000000001
sg5
F0.23000000000000043
sg6
F3.3300000000000001
sg7
VN/A
p557
sg9
F3.3300000000000001
sg10
F3.3300000000000001
sg11
F3.3300000000000001
sg12
V04/09/20
p558
sg14
F31.25
sg15
F3330
sg16
S'P'
sg17
F0.27000000000000002
sa(dp559
g3
I0
sg4
F3.23
sg5
F0.48000000000000043
sg6
F3.23
sg7
VN/A
p560
sg9
F3.23
sg10
F3.23
sg11
F3.23
sg12
V04/09/20
p561
sg14
F31
sg15
F3230
sg16
S'P'
sg17
F0.26000000000000001
sa(dp562
g3
I0
sg4
F3.1200000000000001
sg5
F0.73000000000000043
sg6
F3.1200000000000001
sg7
VN/A
p563
sg9
F3.1200000000000001
sg10
F3.1200000000000001
sg11
F3.1200000000000001
sg12
V04/09/20
p564
sg14
F30.75
sg15
F3120
sg16
S'P'
sg17
F0.23999999999999999
sa(dp565
g3
I0
sg4
F3.02
sg5
F0.98000000000000043
sg6
F3.02
sg7
VN/A
p566
sg9
F3.02
sg10
F3.02
sg11
F3.02
sg12
V04/09/20
p567
sg14
F30.5
sg15
F3020
sg16
S'P'
sg17
F0.23000000000000001
sa(dp568
g3
I0
sg4
F2.9199999999999999
sg5
F1.2300000000000004
sg6
F2.9199999999999999
sg7
VN/A
p569
sg9
F2.9199999999999999
sg10
F2.9199999999999999
sg11
F2.9199999999999999
sg12
V04/09/20
p570
sg14
F30.25
sg15
F2920
sg16
S'P'
sg17
F0.20999999999999999
sa(dp571
g3
I0
sg4
F2.8199999999999998
sg5
F1.4800000000000004
sg6
F2.8199999999999998
sg7
VN/A
p572
sg9
F2.8199999999999998
sg10
F2.8199999999999998
sg11
F2.8199999999999998
sg12
V04/09/20
p573
sg14
F30
sg15
F2820
sg16
S'P'
sg17
F0.19
sa(dp574
g3
I0
sg4
F2.7200000000000002
sg5
F1.7300000000000004
sg6
F2.7200000000000002
sg7
VN/A
p575
sg9
F2.7200000000000002
sg10
F2.7200000000000002
sg11
F2.7200000000000002
sg12
V04/09/20
p576
sg14
F29.75
sg15
F2720
sg16
S'P'
sg17
F0.17000000000000001
sa(dp577
g3
I0
sg4
F2.6299999999999999
sg5
F1.9800000000000004
sg6
F2.6299999999999999
sg7
VN/A
p578
sg9
F2.6299999999999999
sg10
F2.6299999999999999
sg11
F2.6299999999999999
sg12
V04/09/20
p579
sg14
F29.5
sg15
F2630
sg16
S'P'
sg17
F0.16
sa(dp580
g3
I0
sg4
F2.54
sg5
F2.2300000000000004
sg6
F2.54
sg7
VN/A
p581
sg9
F2.54
sg10
F2.54
sg11
F2.54
sg12
V04/09/20
p582
sg14
F29.25
sg15
F2540
sg16
S'P'
sg17
F0.14999999999999999
sa(dp583
g3
I0
sg4
F2.4500000000000002
sg5
F2.4800000000000004
sg6
F2.4500000000000002
sg7
VN/A
p584
sg9
F2.4500000000000002
sg10
F2.4500000000000002
sg11
F2.4500000000000002
sg12
V04/09/20
p585
sg14
F29
sg15
F2450
sg16
S'P'
sg17
F0.14000000000000001
sa(dp586
g3
I0
sg4
F2.3599999999999999
sg5
F2.7300000000000004
sg6
F2.3599999999999999
sg7
VN/A
p587
sg9
F2.3599999999999999
sg10
F2.3599999999999999
sg11
F2.3599999999999999
sg12
V04/09/20
p588
sg14
F28.75
sg15
F2360
sg16
S'P'
sg17
F0.12
sa(dp589
g3
I0
sg4
F2.27
sg5
F2.9800000000000004
sg6
F2.27
sg7
VN/A
p590
sg9
F2.27
sg10
F2.27
sg11
F2.27
sg12
V04/09/20
p591
sg14
F28.5
sg15
F2270
sg16
S'P'
sg17
F0.10000000000000001
sa(dp592
g3
I0
sg4
F2.1899999999999999
sg5
F3.2300000000000004
sg6
F2.1899999999999999
sg7
VN/A
p593
sg9
F2.1899999999999999
sg10
F2.1899999999999999
sg11
F2.1899999999999999
sg12
V04/09/20
p594
sg14
F28.25
sg15
F2190
sg16
S'P'
sg17
F0.10000000000000001
sa(dp595
g3
I0
sg4
F2.1099999999999999
sg5
F3.4800000000000004
sg6
F2.1099999999999999
sg7
VN/A
p596
sg9
F2.1099999999999999
sg10
F2.1099999999999999
sg11
F2.1099999999999999
sg12
V04/09/20
p597
sg14
F28
sg15
F2110
sg16
S'P'
sg17
F0.089999999999999997
sa(dp598
g3
I0
sg4
F2.02
sg5
F3.7300000000000004
sg6
F2.02
sg7
VN/A
p599
sg9
F2.02
sg10
F2.02
sg11
F2.02
sg12
V04/09/20
p600
sg14
F27.75
sg15
F2020
sg16
S'P'
sg17
F0.059999999999999998
sa(dp601
g3
I0
sg4
F1.9399999999999999
sg5
F3.9800000000000004
sg6
F1.9399999999999999
sg7
VN/A
p602
sg9
F1.9399999999999999
sg10
F1.9399999999999999
sg11
F1.9399999999999999
sg12
V04/09/20
p603
sg14
F27.5
sg15
F1940
sg16
S'P'
sg17
F0.050000000000000003
sa(dp604
g3
I0
sg4
F1.8700000000000001
sg5
F4.2300000000000004
sg6
F1.8700000000000001
sg7
VN/A
p605
sg9
F1.8700000000000001
sg10
F1.8700000000000001
sg11
F1.8700000000000001
sg12
V04/09/20
p606
sg14
F27.25
sg15
F1870
sg16
S'P'
sg17
F0.050000000000000003
sa(dp607
g3
I0
sg4
F1.79
sg5
F4.4800000000000004
sg6
F1.79
sg7
VN/A
p608
sg9
F1.79
sg10
F1.79
sg11
F1.79
sg12
V04/09/20
p609
sg14
F27
sg15
F1790
sg16
S'P'
sg17
F0.029999999999999999
sa(dp610
g3
I0
sg4
F1.72
sg5
F4.7300000000000004
sg6
F1.72
sg7
VN/A
p611
sg9
F1.72
sg10
F1.72
sg11
F1.72
sg12
V04/09/20
p612
sg14
F26.75
sg15
F1720
sg16
S'P'
sg17
F0.029999999999999999
sa(dp613
g3
I0
sg4
F1.6499999999999999
sg5
F4.9800000000000004
sg6
F1.6499999999999999
sg7
VN/A
p614
sg9
F1.6499999999999999
sg10
F1.6499999999999999
sg11
F1.6499999999999999
sg12
V04/09/20
p615
sg14
F26.5
sg15
F1650
sg16
S'P'
sg17
F0.02
sa(dp616
g3
I0
sg4
F1.5800000000000001
sg5
F5.2300000000000004
sg6
F1.5800000000000001
sg7
VN/A
p617
sg9
F1.5800000000000001
sg10
F1.5800000000000001
sg11
F1.5800000000000001
sg12
V04/09/20
p618
sg14
F26.25
sg15
F1580
sg16
S'P'
sg17
F0.01
sa(dp619
g3
I0
sg4
F1.51
sg5
F5.4800000000000004
sg6
F1.51
sg7
VN/A
p620
sg9
F1.51
sg10
F1.51
sg11
F1.51
sg12
V04/09/20
p621
sg14
F26
sg15
F1510
sg16
S'P'
sg17
F0
sa(dp622
g3
I0
sg4
F1.4399999999999999
sg5
F5.7300000000000004
sg6
F1.4399999999999999
sg7
VN/A
p623
sg9
F1.4399999999999999
sg10
F1.4399999999999999
sg11
F1.4399999999999999
sg12
V04/09/20
p624
sg14
F25.75
sg15
F1440
sg16
S'P'
sg17
F-0.02
sa(dp625
g3
I0
sg4
F1.3799999999999999
sg5
F5.9800000000000004
sg6
F1.3799999999999999
sg7
VN/A
p626
sg9
F1.3799999999999999
sg10
F1.3799999999999999
sg11
F1.3799999999999999
sg12
V04/09/20
p627
sg14
F25.5
sg15
F1380
sg16
S'P'
sg17
F-0.02
sa(dp628
g3
I0
sg4
F1.3100000000000001
sg5
F6.2300000000000004
sg6
F1.3100000000000001
sg7
VN/A
p629
sg9
F1.3100000000000001
sg10
F1.3100000000000001
sg11
F1.3100000000000001
sg12
V04/09/20
p630
sg14
F25.25
sg15
F1310
sg16
S'P'
sg17
F-0.040000000000000001
sa(dp631
g3
I0
sg4
F1.25
sg5
F6.4800000000000004
sg6
F1.25
sg7
VN/A
p632
sg9
F1.25
sg10
F1.25
sg11
F1.25
sg12
V04/09/20
p633
sg14
F25
sg15
F1250
sg16
S'P'
sg17
F-0.040000000000000001
sa(dp634
g3
I0
sg4
F1.1899999999999999
sg5
F6.7300000000000004
sg6
F1.1899999999999999
sg7
VN/A
p635
sg9
F1.1899999999999999
sg10
F1.1899999999999999
sg11
F1.1899999999999999
sg12
V04/09/20
p636
sg14
F24.75
sg15
F1190
sg16
S'P'
sg17
F-0.050000000000000003
sa(dp637
g3
I0
sg4
F1.1299999999999999
sg5
F6.9800000000000004
sg6
F1.1299999999999999
sg7
VN/A
p638
sg9
F1.1299999999999999
sg10
F1.1299999999999999
sg11
F1.1299999999999999
sg12
V04/09/20
p639
sg14
F24.5
sg15
F1130
sg16
S'P'
sg17
F-0.059999999999999998
sa(dp640
g3
I0
sg4
F1.0800000000000001
sg5
F7.2300000000000004
sg6
F1.0800000000000001
sg7
VN/A
p641
sg9
F1.0800000000000001
sg10
F1.0800000000000001
sg11
F1.0800000000000001
sg12
V04/09/20
p642
sg14
F24.25
sg15
F1080
sg16
S'P'
sg17
F-0.059999999999999998
sa(dp643
g3
I0
sg4
F1.03
sg5
F7.4800000000000004
sg6
F1.03
sg7
VN/A
p644
sg9
F1.03
sg10
F1.03
sg11
F1.03
sg12
V04/09/20
p645
sg14
F24
sg15
F1030
sg16
S'P'
sg17
F-0.070000000000000007
sa(dp646
g3
I0
sg4
F0.96999999999999997
sg5
F7.7300000000000004
sg6
F0.96999999999999997
sg7
VN/A
p647
sg9
F0.96999999999999997
sg10
F0.96999999999999997
sg11
F0.96999999999999997
sg12
V04/09/20
p648
sg14
F23.75
sg15
F970
sg16
S'P'
sg17
F-0.080000000000000002
sa(dp649
g3
I0
sg4
F0.92000000000000004
sg5
F7.9800000000000004
sg6
F0.92000000000000004
sg7
VN/A
p650
sg9
F0.92000000000000004
sg10
F0.92000000000000004
sg11
F0.92000000000000004
sg12
V04/09/20
p651
sg14
F23.5
sg15
F920
sg16
S'P'
sg17
F-0.089999999999999997
sa(dp652
g3
I0
sg4
F0.88
sg5
F8.2300000000000004
sg6
F0.88
sg7
VN/A
p653
sg9
F0.88
sg10
F0.88
sg11
F0.88
sg12
V04/09/20
p654
sg14
F23.25
sg15
F880
sg16
S'P'
sg17
F-0.089999999999999997
sa(dp655
g3
I0
sg4
F0.82999999999999996
sg5
F8.4800000000000004
sg6
F0.82999999999999996
sg7
VN/A
p656
sg9
F0.82999999999999996
sg10
F0.82999999999999996
sg11
F0.82999999999999996
sg12
V04/09/20
p657
sg14
F23
sg15
F830
sg16
S'P'
sg17
F-0.089999999999999997
sa(dp658
g3
I0
sg4
F0.79000000000000004
sg5
F8.7300000000000004
sg6
F0.79000000000000004
sg7
VN/A
p659
sg9
F0.79000000000000004
sg10
F0.79000000000000004
sg11
F0.79000000000000004
sg12
V04/09/20
p660
sg14
F22.75
sg15
F790
sg16
S'P'
sg17
F-0.089999999999999997
sa(dp661
g3
I0
sg4
F0.73999999999999999
sg5
F8.9800000000000004
sg6
F0.73999999999999999
sg7
VN/A
p662
sg9
F0.73999999999999999
sg10
F0.73999999999999999
sg11
F0.73999999999999999
sg12
V04/09/20
p663
sg14
F22.5
sg15
F740
sg16
S'P'
sg17
F-0.11
sa(dp664
g3
I0
sg4
F0.69999999999999996
sg5
F9.2300000000000004
sg6
F0.69999999999999996
sg7
VN/A
p665
sg9
F0.69999999999999996
sg10
F0.69999999999999996
sg11
F0.69999999999999996
sg12
V04/09/20
p666
sg14
F22.25
sg15
F700
sg16
S'P'
sg17
F-0.11
sa(dp667
g3
I0
sg4
F0.66000000000000003
sg5
F9.4800000000000004
sg6
F0.66000000000000003
sg7
VN/A
p668
sg9
F0.66000000000000003
sg10
F0.66000000000000003
sg11
F0.66000000000000003
sg12
V04/09/20
p669
sg14
F22
sg15
F660
sg16
S'P'
sg17
F-0.11
sa(dp670
g3
I0
sg4
F0.63
sg5
F9.7300000000000004
sg6
F0.63
sg7
VN/A
p671
sg9
F0.63
sg10
F0.63
sg11
F0.63
sg12
V04/09/20
p672
sg14
F21.75
sg15
F630
sg16
S'P'
sg17
F-0.11
sa(dp673
g3
I0
sg4
F0.58999999999999997
sg5
F9.9800000000000004
sg6
F0.58999999999999997
sg7
VN/A
p674
sg9
F0.58999999999999997
sg10
F0.58999999999999997
sg11
F0.58999999999999997
sg12
V04/09/20
p675
sg14
F21.5
sg15
F590
sg16
S'P'
sg17
F-0.11
sa(dp676
g3
I0
sg4
F0.56000000000000005
sg5
F10.23
sg6
F0.56000000000000005
sg7
VN/A
p677
sg9
F0.56000000000000005
sg10
F0.56000000000000005
sg11
F0.56000000000000005
sg12
V04/09/20
p678
sg14
F21.25
sg15
F560
sg16
S'P'
sg17
F-0.11
sa(dp679
g3
I0
sg4
F0.53000000000000003
sg5
F10.48
sg6
F0.53000000000000003
sg7
VN/A
p680
sg9
F0.53000000000000003
sg10
F0.53000000000000003
sg11
F0.53000000000000003
sg12
V04/09/20
p681
sg14
F21
sg15
F530
sg16
S'P'
sg17
F-0.11
sa(dp682
g3
I0
sg4
F0.5
sg5
F10.73
sg6
F0.5
sg7
VN/A
p683
sg9
F0.5
sg10
F0.5
sg11
F0.5
sg12
V04/09/20
p684
sg14
F20.75
sg15
F500
sg16
S'P'
sg17
F-0.11
sa(dp685
g3
I0
sg4
F0.46999999999999997
sg5
F10.98
sg6
F0.46999999999999997
sg7
VN/A
p686
sg9
F0.46999999999999997
sg10
F0.46999999999999997
sg11
F0.46999999999999997
sg12
V04/09/20
p687
sg14
F20.5
sg15
F470
sg16
S'P'
sg17
F-0.11
sa(dp688
g3
I0
sg4
F0.44
sg5
F11.23
sg6
F0.44
sg7
VN/A
p689
sg9
F0.44
sg10
F0.44
sg11
F0.44
sg12
V04/09/20
p690
sg14
F20.25
sg15
F440
sg16
S'P'
sg17
F-0.11
sa(dp691
g3
I0
sg4
F0.41999999999999998
sg5
F11.48
sg6
F0.41999999999999998
sg7
VN/A
p692
sg9
F0.41999999999999998
sg10
F0.41999999999999998
sg11
F0.41999999999999998
sg12
V04/09/20
p693
sg14
F20
sg15
F420
sg16
S'P'
sg17
F-0.10000000000000001
sa(dp694
g3
I0
sg4
F0.39000000000000001
sg5
F11.73
sg6
F0.39000000000000001
sg7
VN/A
p695
sg9
F0.39000000000000001
sg10
F0.39000000000000001
sg11
F0.39000000000000001
sg12
V04/09/20
p696
sg14
F19.75
sg15
F390
sg16
S'P'
sg17
F-0.11
sa(dp697
g3
I0
sg4
F0.37
sg5
F11.98
sg6
F0.37
sg7
VN/A
p698
sg9
F0.37
sg10
F0.37
sg11
F0.37
sg12
V04/09/20
p699
sg14
F19.5
sg15
F370
sg16
S'P'
sg17
F-0.10000000000000001
sa(dp700
g3
I0
sg4
F0.33000000000000002
sg5
F12.48
sg6
F0.33000000000000002
sg7
VN/A
p701
sg9
F0.33000000000000002
sg10
F0.33000000000000002
sg11
F0.33000000000000002
sg12
V04/09/20
p702
sg14
F19
sg15
F330
sg16
S'P'
sg17
F-0.10000000000000001
sa(dp703
g3
I0
sg4
F0.28999999999999998
sg5
F12.98
sg6
F0.28999999999999998
sg7
VN/A
p704
sg9
F0.28999999999999998
sg10
F0.28999999999999998
sg11
F0.28999999999999998
sg12
V04/09/20
p705
sg14
F18.5
sg15
F290
sg16
S'P'
sg17
F-0.10000000000000001
sa(dp706
g3
I0
sg4
F0.26000000000000001
sg5
F13.48
sg6
F0.26000000000000001
sg7
VN/A
p707
sg9
F0.26000000000000001
sg10
F0.26000000000000001
sg11
F0.26000000000000001
sg12
V04/09/20
p708
sg14
F18
sg15
F260
sg16
S'P'
sg17
F-0.089999999999999997
sa(dp709
g3
I0
sg4
F0.23000000000000001
sg5
F13.98
sg6
F0.23000000000000001
sg7
VN/A
p710
sg9
F0.23000000000000001
sg10
F0.23000000000000001
sg11
F0.23000000000000001
sg12
V04/09/20
p711
sg14
F17.5
sg15
F230
sg16
S'P'
sg17
F-0.089999999999999997
sa(dp712
g3
I0
sg4
F0.20999999999999999
sg5
F14.48
sg6
F0.20999999999999999
sg7
VN/A
p713
sg9
F0.20999999999999999
sg10
F0.20999999999999999
sg11
F0.20999999999999999
sg12
V04/09/20
p714
sg14
F17
sg15
F210
sg16
S'P'
sg17
F-0.080000000000000002
sa(dp715
g3
I0
sg4
F0.19
sg5
F14.98
sg6
F0.19
sg7
VN/A
p716
sg9
F0.19
sg10
F0.19
sg11
F0.19
sg12
V04/09/20
p717
sg14
F16.5
sg15
F190
sg16
S'P'
sg17
F-0.070000000000000007
sa(dp718
g3
I0
sg4
F0.17000000000000001
sg5
F15.48
sg6
F0.17000000000000001
sg7
VN/A
p719
sg9
F0.17000000000000001
sg10
F0.17000000000000001
sg11
F0.17000000000000001
sg12
V04/09/20
p720
sg14
F16
sg15
F170
sg16
S'P'
sg17
F-0.059999999999999998
sa(dp721
g3
I0
sg4
F0.14999999999999999
sg5
F15.98
sg6
F0.14999999999999999
sg7
VN/A
p722
sg9
F0.14999999999999999
sg10
F0.14999999999999999
sg11
F0.14999999999999999
sg12
V04/09/20
p723
sg14
F15.5
sg15
F150
sg16
S'P'
sg17
F-0.059999999999999998
sa(dp724
g3
I0
sg4
F0.13
sg5
F16.48
sg6
F0.13
sg7
VN/A
p725
sg9
F0.13
sg10
F0.13
sg11
F0.13
sg12
V04/09/20
p726
sg14
F15
sg15
F130
sg16
S'P'
sg17
F-0.059999999999999998
sa(dp727
g3
I0
sg4
F0.12
sg5
F16.98
sg6
F0.12
sg7
VN/A
p728
sg9
F0.12
sg10
F0.12
sg11
F0.12
sg12
V04/09/20
p729
sg14
F14.5
sg15
F120
sg16
S'P'
sg17
F-0.050000000000000003
sa(dp730
g3
I0
sg4
F0.10000000000000001
sg5
F17.48
sg6
F0.10000000000000001
sg7
VN/A
p731
sg9
F0.10000000000000001
sg10
F0.10000000000000001
sg11
F0.10000000000000001
sg12
V04/09/20
p732
sg14
F14
sg15
F100
sg16
S'P'
sg17
F-0.050000000000000003
sa(dp733
g3
I0
sg4
F0.089999999999999997
sg5
F17.98
sg6
F0.089999999999999997
sg7
VN/A
p734
sg9
F0.089999999999999997
sg10
F0.089999999999999997
sg11
F0.089999999999999997
sg12
V04/09/20
p735
sg14
F13.5
sg15
F90
sg16
S'P'
sg17
F-0.040000000000000001
sa(dp736
g3
I0
sg4
F0.080000000000000002
sg5
F18.48
sg6
F0.080000000000000002
sg7
VN/A
p737
sg9
F0.080000000000000002
sg10
F0.080000000000000002
sg11
F0.080000000000000002
sg12
V04/09/20
p738
sg14
F13
sg15
F80
sg16
S'P'
sg17
F-0.040000000000000001
sa(dp739
g3
I0
sg4
F0.070000000000000007
sg5
F18.98
sg6
F0.070000000000000007
sg7
VN/A
p740
sg9
F0.070000000000000007
sg10
F0.070000000000000007
sg11
F0.070000000000000007
sg12
V04/09/20
p741
sg14
F12.5
sg15
F70
sg16
S'P'
sg17
F-0.040000000000000001
sa(dp742
g3
I0
sg4
F0.059999999999999998
sg5
F19.48
sg6
F0.059999999999999998
sg7
VN/A
p743
sg9
F0.059999999999999998
sg10
F0.059999999999999998
sg11
F0.059999999999999998
sg12
V04/09/20
p744
sg14
F12
sg15
F60
sg16
S'P'
sg17
F-0.029999999999999999
sa(dp745
g3
I0
sg4
F0.059999999999999998
sg5
F19.98
sg6
F0.059999999999999998
sg7
VN/A
p746
sg9
F0.059999999999999998
sg10
F0.059999999999999998
sg11
F0.059999999999999998
sg12
V04/09/20
p747
sg14
F11.5
sg15
F60
sg16
S'P'
sg17
F-0.02
sa(dp748
g3
I0
sg4
F0.050000000000000003
sg5
F20.48
sg6
F0.050000000000000003
sg7
VN/A
p749
sg9
F0.050000000000000003
sg10
F0.050000000000000003
sg11
F0.050000000000000003
sg12
V04/09/20
p750
sg14
F11
sg15
F50
sg16
S'P'
sg17
F-0.02
sa(dp751
g3
I0
sg4
F0.040000000000000001
sg5
F20.98
sg6
F0.040000000000000001
sg7
VN/A
p752
sg9
F0.040000000000000001
sg10
F0.040000000000000001
sg11
F0.040000000000000001
sg12
V04/09/20
p753
sg14
F10.5
sg15
F40
sg16
S'P'
sg17
F-0.02
sa(dp754
g3
I0
sg4
F0.040000000000000001
sg5
F21.48
sg6
F0.040000000000000001
sg7
VN/A
p755
sg9
F0.040000000000000001
sg10
F0.040000000000000001
sg11
F0.040000000000000001
sg12
V04/09/20
p756
sg14
F10
sg15
F40
sg16
S'P'
sg17
F-0.02
sat.